target datalayout = "e-m:e-p270:32:32-p271:32:32-p272:64:64-i64:64-i128:128-f80:128-n8:16:32:64-S128"
target triple = "x86_64-pc-linux-gnu"

%struct.AVCodecContext = type { ptr, i32, i32, ptr, i32, i32, ptr, ptr, ptr, i64, i32, i32, ptr, i32, %struct.AVRational, %struct.AVRational, %struct.AVRational, i32, i32, i32, i32, i32, %struct.AVRational, i32, i32, i32, i32, i32, i32, i32, i32, i32, i32, i32, ptr, ptr, i32, float, float, float, float, float, float, float, float, float, i32, i32, i32, i32, i32, i32, i32, i32, i32, i32, i32, i32, ptr, ptr, ptr, i32, i32, i32, i32, i32, i32, i32, i32, i32, i32, %struct.AVChannelLayout, i32, i32, i32, i32, i32, i32, i32, i32, ptr, i32, i32, i32, float, float, i32, i32, i32, i32, i32, ptr, i64, i64, float, float, i32, i32, ptr, ptr, i32, i32, i32, i32, i32, ptr, ptr, ptr, ptr, i32, i32, [8 x i64], i32, i32, i32, i32, i32, i32, i32, ptr, ptr, i32, i32, i32, i32, i32, i32, i32, i32, i32, i32, ptr, ptr, i32, i32, ptr, ptr, ptr, ptr, i32, i32, i64, i32, i32, i64, ptr, i64, ptr, i32, ptr, i32 }
%struct.AVRational = type { i32, i32 }
%struct.AVChannelLayout = type { i32, i32, %union.anon.1, ptr }
%union.anon.1 = type { i64 }
%struct.JPEGLSContext = type { ptr, i32, i32, i64, ptr }

@.str.9 = private unnamed_addr constant [34 x i8] c"Dimensions exceeding 65535x65535\0A\00", align 1

; Function Attrs: cold nounwind optsize uwtable
define internal i32 @encode_jpegls_init(ptr noundef %0) #0 {
  %2 = alloca i32, align 4
  %3 = alloca ptr, align 8
  %4 = alloca ptr, align 8
  %5 = alloca i64, align 8
  %6 = alloca i32, align 4
  store ptr %0, ptr %3, align 8, !tbaa !4
  call void @llvm.lifetime.start.p0(i64 8, ptr %4) #10
  %7 = load ptr, ptr %3, align 8, !tbaa !4
  %8 = getelementptr inbounds nuw %struct.AVCodecContext, ptr %7, i32 0, i32 6
  %9 = load ptr, ptr %8, align 8, !tbaa !9
  store ptr %9, ptr %4, align 8, !tbaa !29
  call void @llvm.lifetime.start.p0(i64 8, ptr %5) #10
  %10 = load ptr, ptr %3, align 8, !tbaa !4
  %11 = getelementptr inbounds nuw %struct.AVCodecContext, ptr %10, i32 0, i32 18
  %12 = load i32, ptr %11, align 8, !tbaa !31
  %13 = load ptr, ptr %3, align 8, !tbaa !4
  %14 = getelementptr inbounds nuw %struct.AVCodecContext, ptr %13, i32 0, i32 19
  %15 = load i32, ptr %14, align 4, !tbaa !32
  %16 = or i32 %12, %15
  %17 = icmp sgt i32 %16, 65535
  br i1 %17, label %18, label %20

18:                                               ; preds = %1
  %19 = load ptr, ptr %3, align 8, !tbaa !4
  call void (ptr, i32, ptr, ...) @av_log(ptr noundef %19, i32 noundef 16, ptr noundef @.str.9)
  store i32 -22, ptr %2, align 4
  store i32 1, ptr %6, align 4
  br label %85

20:                                               ; preds = %1
  %21 = load ptr, ptr %3, align 8, !tbaa !4
  %22 = getelementptr inbounds nuw %struct.AVCodecContext, ptr %21, i32 0, i32 23
  %23 = load i32, ptr %22, align 8, !tbaa !33
  %24 = icmp eq i32 %23, 8
  br i1 %24, label %30, label %25

25:                                               ; preds = %20
  %26 = load ptr, ptr %3, align 8, !tbaa !4
  %27 = getelementptr inbounds nuw %struct.AVCodecContext, ptr %26, i32 0, i32 23
  %28 = load i32, ptr %27, align 8, !tbaa !33
  %29 = icmp eq i32 %28, 30
  br i1 %29, label %30, label %33

30:                                               ; preds = %25, %20
  %31 = load ptr, ptr %4, align 8, !tbaa !29
  %32 = getelementptr inbounds nuw %struct.JPEGLSContext, ptr %31, i32 0, i32 2
  store i32 1, ptr %32, align 4, !tbaa !34
  br label %36

33:                                               ; preds = %25
  %34 = load ptr, ptr %4, align 8, !tbaa !29
  %35 = getelementptr inbounds nuw %struct.JPEGLSContext, ptr %34, i32 0, i32 2
  store i32 3, ptr %35, align 4, !tbaa !34
  br label %36

36:                                               ; preds = %33, %30
  store i64 16384, ptr %5, align 8, !tbaa !36
  %37 = load ptr, ptr %3, align 8, !tbaa !4
  %38 = getelementptr inbounds nuw %struct.AVCodecContext, ptr %37, i32 0, i32 18
  %39 = load i32, ptr %38, align 8, !tbaa !31
  %40 = load ptr, ptr %3, align 8, !tbaa !4
  %41 = getelementptr inbounds nuw %struct.AVCodecContext, ptr %40, i32 0, i32 19
  %42 = load i32, ptr %41, align 4, !tbaa !32
  %43 = mul i32 %39, %42
  %44 = zext i32 %43 to i64
  %45 = load i64, ptr %5, align 8, !tbaa !36
  %46 = sub i64 2147483647, %45
  %47 = udiv i64 %46, 4
  %48 = load ptr, ptr %4, align 8, !tbaa !29
  %49 = getelementptr inbounds nuw %struct.JPEGLSContext, ptr %48, i32 0, i32 2
  %50 = load i32, ptr %49, align 4, !tbaa !34
  %51 = sext i32 %50 to i64
  %52 = udiv i64 %47, %51
  %53 = icmp ugt i64 %44, %52
  br i1 %53, label %54, label %55

54:                                               ; preds = %36
  store i32 -34, ptr %2, align 4
  store i32 1, ptr %6, align 4
  br label %85

55:                                               ; preds = %36
  %56 = load ptr, ptr %4, align 8, !tbaa !29
  %57 = getelementptr inbounds nuw %struct.JPEGLSContext, ptr %56, i32 0, i32 2
  %58 = load i32, ptr %57, align 4, !tbaa !34
  %59 = mul nsw i32 4, %58
  %60 = load ptr, ptr %3, align 8, !tbaa !4
  %61 = getelementptr inbounds nuw %struct.AVCodecContext, ptr %60, i32 0, i32 18
  %62 = load i32, ptr %61, align 8, !tbaa !31
  %63 = mul nsw i32 %59, %62
  %64 = load ptr, ptr %3, align 8, !tbaa !4
  %65 = getelementptr inbounds nuw %struct.AVCodecContext, ptr %64, i32 0, i32 19
  %66 = load i32, ptr %65, align 4, !tbaa !32
  %67 = mul nsw i32 %63, %66
  %68 = sext i32 %67 to i64
  %69 = load i64, ptr %5, align 8, !tbaa !36
  %70 = add i64 %69, %68
  store i64 %70, ptr %5, align 8, !tbaa !36
  %71 = load i64, ptr %5, align 8, !tbaa !36
  %72 = load ptr, ptr %4, align 8, !tbaa !29
  %73 = getelementptr inbounds nuw %struct.JPEGLSContext, ptr %72, i32 0, i32 3
  store i64 %71, ptr %73, align 8, !tbaa !37
  %74 = load i64, ptr %5, align 8, !tbaa !36
  %75 = add i64 %74, 64
  %76 = call noalias ptr @av_malloc(i64 noundef %75)
  %77 = load ptr, ptr %4, align 8, !tbaa !29
  %78 = getelementptr inbounds nuw %struct.JPEGLSContext, ptr %77, i32 0, i32 4
  store ptr %76, ptr %78, align 8, !tbaa !38
  %79 = load ptr, ptr %4, align 8, !tbaa !29
  %80 = getelementptr inbounds nuw %struct.JPEGLSContext, ptr %79, i32 0, i32 4
  %81 = load ptr, ptr %80, align 8, !tbaa !38
  %82 = icmp ne ptr %81, null
  br i1 %82, label %84, label %83

83:                                               ; preds = %55
  store i32 -12, ptr %2, align 4
  store i32 1, ptr %6, align 4
  br label %85

84:                                               ; preds = %55
  store i32 0, ptr %2, align 4
  store i32 1, ptr %6, align 4
  br label %85

85:                                               ; preds = %84, %83, %54, %18
  call void @llvm.lifetime.end.p0(i64 8, ptr %5) #10
  call void @llvm.lifetime.end.p0(i64 8, ptr %4) #10
  %86 = load i32, ptr %2, align 4
  ret i32 %86
}