; Function Attrs: cold nounwind optsize uwtable
define internal range(i32 -34, 1) i32 @encode_jpegls_init(ptr noundef %0) #0 {
  %2 = getelementptr inbounds nuw i8, ptr %0, i64 32
  %3 = load ptr, ptr %2, align 8, !tbaa !4
  %4 = getelementptr inbounds nuw i8, ptr %0, i64 112
  %5 = load i32, ptr %4, align 8, !tbaa !27
  %6 = getelementptr inbounds nuw i8, ptr %0, i64 116
  %7 = load i32, ptr %6, align 4, !tbaa !28
  %8 = or i32 %7, %5
  %9 = icmp sgt i32 %8, 65535
  br i1 %9, label %10, label %11

10:                                               ; preds = %1
  tail call void (ptr, i32, ptr, ...) @av_log(ptr noundef nonnull %0, i32 noundef 16, ptr noundef nonnull @.str.9) #8
  br label %28

11:                                               ; preds = %1
  %12 = getelementptr inbounds nuw i8, ptr %0, i64 136
  %13 = load i32, ptr %12, align 8, !tbaa !29
  %switch.selectcmp.case1 = icmp eq i32 %13, 8
  %switch.selectcmp.case2 = icmp eq i32 %13, 30
  %switch.selectcmp = or i1 %switch.selectcmp.case1, %switch.selectcmp.case2
  %14 = select i1 %switch.selectcmp, i32 1, i32 3
  %15 = getelementptr inbounds nuw i8, ptr %3, i64 12
  store i32 %14, ptr %15, align 4, !tbaa !30
  %16 = mul i32 %7, %5
  %17 = select i1 %switch.selectcmp, i32 536866815, i32 178955605
  %18 = icmp ult i32 %17, %16
  br i1 %18, label %28, label %19

19:                                               ; preds = %11
  %20 = shl nuw nsw i32 %16, 2
  %21 = mul i32 %20, %14
  %22 = sext i32 %21 to i64
  %23 = add nsw i64 %22, 16384
  %24 = getelementptr inbounds nuw i8, ptr %3, i64 16
  store i64 %23, ptr %24, align 8, !tbaa !32
  %25 = add nsw i64 %22, 16448
  %26 = tail call noalias ptr @av_malloc(i64 noundef %25) #8
  %27 = getelementptr inbounds nuw i8, ptr %3, i64 24
  store ptr %26, ptr %27, align 8, !tbaa !33
  %.not = icmp eq ptr %26, null
  %. = select i1 %.not, i32 -12, i32 0
  br label %28

28:                                               ; preds = %19, %11, %10
  %.0 = phi i32 [ -22, %10 ], [ -34, %11 ], [ %., %19 ]
  ret i32 %.0
}